; Function Attrs: nounwind uwtable
define i32 @dtls1_read_failed(ptr noundef %0, i32 noundef %1) local_unnamed_addr #0 {
  %3 = icmp sgt i32 %1, 0
  br i1 %3, label %4, label %5

4:                                                ; preds = %2
  tail call void @ERR_new() #9
  tail call void @ERR_set_debug(ptr noundef nonnull @.str, i32 noundef 1057, ptr noundef nonnull @__func__.dtls1_read_failed) #9
  tail call void (ptr, i32, i32, ptr, ...) @ossl_statem_fatal(ptr noundef %0, i32 noundef 80, i32 noundef 786691, ptr noundef null) #9
  br label %15

5:                                                ; preds = %2
  %6 = tail call i32 @dtls1_is_timer_expired(ptr noundef %0) #9
  %.not = icmp eq i32 %6, 0
  br i1 %.not, label %15, label %7

7:                                                ; preds = %5
  %8 = tail call i32 @ossl_statem_in_error(ptr noundef %0) #9
  %.not11 = icmp eq i32 %8, 0
  br i1 %.not11, label %9, label %15

9:                                                ; preds = %7
  %10 = tail call i32 @SSL_in_init(ptr noundef %0) #9
  %.not12 = icmp eq i32 %10, 0
  br i1 %.not12, label %11, label %13

11:                                               ; preds = %9
  %12 = tail call ptr @SSL_get_rbio(ptr noundef %0) #9
  tail call void @BIO_set_flags(ptr noundef %12, i32 noundef 1) #9
  br label %15

13:                                               ; preds = %9
  %14 = tail call i32 @dtls1_handle_timeout(ptr noundef %0) #9
  br label %15

15:                                               ; preds = %5, %7, %13, %11, %4
  %.0 = phi i32 [ 0, %4 ], [ %14, %13 ], [ %1, %11 ], [ %1, %7 ], [ %1, %5 ]
  ret i32 %.0
}